; Function Attrs: nounwind uwtable
define internal i32 @drsuapi_dissect_DsReplicaMod_request(ptr noundef %0, i32 noundef %1, ptr noundef %2, ptr noundef %3, ptr noundef initializes((80, 88)) %4, ptr noundef %5) #0 {
  %7 = alloca ptr, align 8
  %8 = alloca i32, align 4
  %9 = getelementptr inbounds nuw i8, ptr %4, i64 80
  store ptr @.str.1704, ptr %9, align 8
  %10 = load i32, ptr @hf_drsuapi_drsuapi_DsReplicaMod_bind_handle, align 4
  %11 = tail call i32 @dissect_ndr_toplevel_pointer(ptr noundef %0, i32 noundef %1, ptr noundef %2, ptr noundef %3, ptr noundef %4, ptr noundef %5, ptr noundef nonnull @drsuapi_dissect_element_DsReplicaMod_bind_handle_, i32 noundef 1, ptr noundef nonnull @.str.1732, i32 noundef %10) #5
  %12 = tail call i32 @dissect_deferred_pointers(ptr noundef %2, ptr noundef %0, i32 noundef %11, ptr noundef %4, ptr noundef %5) #5
  %13 = load i32, ptr @hf_drsuapi_drsuapi_DsReplicaMod_level, align 4
  %14 = tail call i32 @PIDL_dissect_uint32(ptr noundef %0, i32 noundef %12, ptr noundef %2, ptr noundef %3, ptr noundef %4, ptr noundef %5, i32 noundef %13, i32 noundef 0) #5
  %15 = tail call i32 @dissect_deferred_pointers(ptr noundef %2, ptr noundef %0, i32 noundef %14, ptr noundef %4, ptr noundef %5) #5
  %16 = load i32, ptr @hf_drsuapi_drsuapi_DsReplicaMod_req, align 4
  call void @llvm.lifetime.start.p0(i64 8, ptr nonnull %7)
  call void @llvm.lifetime.start.p0(i64 4, ptr nonnull %8)
  store ptr null, ptr %7, align 8
  %.not.i.i = icmp eq ptr %3, null
  br i1 %.not.i.i, label %20, label %17

17:                                               ; preds = %6
  %18 = load i32, ptr @ett_drsuapi_drsuapi_DsReplicaModRequest, align 4
  %19 = call ptr @proto_tree_add_subtree(ptr noundef nonnull %3, ptr noundef %0, i32 noundef %15, i32 noundef -1, i32 noundef %18, ptr noundef nonnull %7, ptr noundef nonnull @.str.1743) #5
  br label %20

20:                                               ; preds = %17, %6
  %.027.i.i = phi ptr [ %19, %17 ], [ null, %6 ]
  %21 = call i32 @dissect_ndr_uint32(ptr noundef %0, i32 noundef %15, ptr noundef %2, ptr noundef %.027.i.i, ptr noundef nonnull %4, ptr noundef %5, i32 noundef %16, ptr noundef nonnull %8) #5
  %22 = getelementptr inbounds nuw i8, ptr %4, i64 72
  %23 = load ptr, ptr %22, align 8
  %24 = getelementptr inbounds nuw i8, ptr %23, i64 96
  %25 = load i32, ptr %24, align 8
  %26 = and i32 %25, 1
  %.not29.i.i = icmp eq i32 %26, 0
  %27 = getelementptr inbounds nuw i8, ptr %4, i64 28
  %28 = load i32, ptr %27, align 4
  %.not30.i.i = icmp ne i32 %28, 0
  br i1 %.not29.i.i, label %34, label %29

29:                                               ; preds = %20
  %30 = and i32 %21, 7
  %.not33.i.i = icmp eq i32 %30, 0
  %or.cond.i.i = select i1 %.not30.i.i, i1 true, i1 %.not33.i.i
  br i1 %or.cond.i.i, label %39, label %31

31:                                               ; preds = %29
  %32 = and i32 %21, -8
  %33 = add i32 %32, 8
  br label %39

34:                                               ; preds = %20
  %35 = and i32 %21, 3
  %.not31.i.i = icmp eq i32 %35, 0
  %or.cond34.i.i = select i1 %.not30.i.i, i1 true, i1 %.not31.i.i
  br i1 %or.cond34.i.i, label %39, label %36

36:                                               ; preds = %34
  %37 = and i32 %21, -4
  %38 = add i32 %37, 4
  br label %39

39:                                               ; preds = %36, %34, %31, %29
  %.0.i.i = phi i32 [ %21, %29 ], [ %33, %31 ], [ %21, %34 ], [ %38, %36 ]
  %40 = load i32, ptr %8, align 4
  %cond.i.i = icmp eq i32 %40, 1
  br i1 %cond.i.i, label %41, label %drsuapi_dissect_element_DsReplicaMod_req.exit

41:                                               ; preds = %39
  %42 = load i32, ptr @hf_drsuapi_drsuapi_DsReplicaModRequest_req1, align 4
  %43 = call i32 @drsuapi_dissect_struct_DsReplicaModRequest1(ptr noundef %0, i32 noundef %.0.i.i, ptr noundef %2, ptr noundef %.027.i.i, ptr noundef nonnull %4, ptr noundef %5, i32 noundef %42, i32 poison)
  br label %drsuapi_dissect_element_DsReplicaMod_req.exit

drsuapi_dissect_element_DsReplicaMod_req.exit:    ; preds = %39, %41
  %.1.i.i = phi i32 [ %43, %41 ], [ %.0.i.i, %39 ]
  %44 = load ptr, ptr %7, align 8
  %45 = sub i32 %.1.i.i, %15
  call void @proto_item_set_len(ptr noundef %44, i32 noundef %45) #5
  call void @llvm.lifetime.end.p0(i64 8, ptr nonnull %7)
  call void @llvm.lifetime.end.p0(i64 4, ptr nonnull %8)
  %46 = call i32 @dissect_deferred_pointers(ptr noundef %2, ptr noundef %0, i32 noundef %.1.i.i, ptr noundef nonnull %4, ptr noundef %5) #5
  ret i32 %46
}